(dp0
S'v_HandstandWalking_g12_c01'
p1
I16
sS'v_HandstandWalking_g12_c02'
p2
I16
sS'v_HandstandWalking_g12_c03'
p3
I16
sS'v_HandstandWalking_g12_c04'
p4
I19
sS'v_Punch_g23_c02'
p5
I61
sS'v_JumpingJack_g10_c01'
p6
I12
sS'v_BenchPress_g16_c05'
p7
I25
sS'v_HandStandPushups_g10_c04'
p8
I27
sS'v_WallPushups_g17_c02'
p9
I27
sS'v_WallPushups_g17_c03'
p10
I23
sS'v_HandStandPushups_g10_c01'
p11
I17
sS'v_WallPushups_g17_c05'
p12
I24
sS'v_HandStandPushups_g10_c03'
p13
I16
sS'v_HandStandPushups_g15_c05'
p14
I23
sS'v_HandstandWalking_g18_c06'
p15
I58
sS'v_HandstandWalking_g18_c07'
p16
I66
sS'v_HandstandWalking_g18_c04'
p17
I73
sS'v_HandstandWalking_g18_c05'
p18
I36
sS'v_HandstandWalking_g18_c02'
p19
I42
sS'v_HandstandWalking_g18_c03'
p20
I66
sS'v_HandstandWalking_g18_c01'
p21
I36
sS'v_JumpRope_g09_c03'
p22
I84
sS'v_JumpingJack_g14_c02'
p23
I11
sS'v_Punch_g17_c03'
p24
I54
sS'v_JumpingJack_g10_c02'
p25
I12
sS'v_BenchPress_g16_c04'
p26
I44
sS'v_PullUps_g17_c03'
p27
I34
sS'v_PommelHorse_g09_c02'
p28
I41
sS'v_PullUps_g17_c01'
p29
I28
sS'v_BenchPress_g08_c01'
p30
I13
sS'v_BenchPress_g08_c06'
p31
I18
sS'v_BenchPress_g08_c07'
p32
I15
sS'v_BenchPress_g08_c04'
p33
I13
sS'v_PullUps_g17_c04'
p34
I38
sS'v_BenchPress_g09_c03'
p35
I14
sS'v_HandStandPushups_g25_c03'
p36
I27
sS'v_BenchPress_g09_c02'
p37
I15
sS'v_WallPushups_g20_c01'
p38
I19
sS'v_JumpRope_g20_c05'
p39
I83
sS'v_HandStandPushups_g25_c01'
p40
I28
sS'v_JumpRope_g20_c07'
p41
I80
sS'v_JumpRope_g20_c06'
p42
I88
sS'v_JumpRope_g20_c01'
p43
I77
sS'v_HandstandWalking_g16_c03'
p44
I22
sS'v_JumpRope_g20_c03'
p45
I86
sS'v_JumpRope_g20_c02'
p46
I89
sS'v_CleanAndJerk_g08_c03'
p47
I23
sS'v_HandStandPushups_g13_c03'
p48
I23
sS'v_PommelHorse_g22_c01'
p49
I65
sS'v_HandStandPushups_g13_c01'
p50
I25
sS'v_JumpRope_g14_c04'
p51
I52
sS'v_HandStandPushups_g13_c07'
p52
I31
sS'v_PommelHorse_g22_c05'
p53
I71
sS'v_CleanAndJerk_g08_c04'
p54
I56
sS'v_JumpRope_g25_c06'
p55
I69
sS'v_BenchPress_g09_c05'
p56
I13
sS'v_HandStandPushups_g25_c05'
p57
I36
sS'v_WallPushups_g17_c07'
p58
I19
sS'v_JumpRope_g18_c04'
p59
I64
sS'v_JumpRope_g16_c06'
p60
I89
sS'v_HandStandPushups_g25_c04'
p61
I29
sS'v_Punch_g15_c02'
p62
I61
sS'v_Punch_g15_c03'
p63
I61
sS'v_PommelHorse_g24_c03'
p64
I50
sS'v_Punch_g15_c01'
p65
I56
sS'v_Punch_g15_c06'
p66
I31
sS'v_PommelHorse_g24_c04'
p67
I52
sS'v_Punch_g15_c04'
p68
I61
sS'v_Punch_g15_c05'
p69
I61
sS'v_WallPushups_g17_c06'
p70
I26
sS'v_HandstandWalking_g23_c03'
p71
I61
sS'v_PommelHorse_g16_c02'
p72
I51
sS'v_PommelHorse_g16_c03'
p73
I34
sS'v_BenchPress_g18_c04'
p74
I26
sS'v_PommelHorse_g16_c01'
p75
I50
sS'v_WallPushups_g17_c04'
p76
I24
sS'v_PommelHorse_g16_c04'
p77
I64
sS'v_JumpRope_g16_c07'
p78
I78
sS'v_BenchPress_g25_c05'
p79
I45
sS'v_BenchPress_g25_c04'
p80
I44
sS'v_BenchPress_g25_c07'
p81
I27
sS'v_BenchPress_g25_c06'
p82
I25
sS'v_BenchPress_g25_c01'
p83
I22
sS'v_BenchPress_g25_c03'
p84
I20
sS'v_PushUps_g10_c02'
p85
I13
sS'v_HulaHoop_g13_c01'
p86
I19
sS'v_JumpingJack_g13_c01'
p87
I17
sS'v_BodyWeightSquats_g09_c07'
p88
I47
sS'v_BodyWeightSquats_g09_c06'
p89
I53
sS'v_BodyWeightSquats_g09_c05'
p90
I46
sS'v_BodyWeightSquats_g09_c04'
p91
I25
sS'v_BodyWeightSquats_g09_c03'
p92
I24
sS'v_BodyWeightSquats_g09_c02'
p93
I41
sS'v_BodyWeightSquats_g09_c01'
p94
I41
sS'v_HandStandPushups_g11_c05'
p95
I32
sS'v_JumpingJack_g13_c07'
p96
I18
sS'v_JumpingJack_g23_c01'
p97
I15
sS'v_HulaHoop_g09_c05'
p98
I19
sS'v_WallPushups_g11_c02'
p99
I33
sS'v_HulaHoop_g12_c05'
p100
I19
sS'v_HulaHoop_g09_c06'
p101
I18
sS'v_WallPushups_g11_c03'
p102
I29
sS'v_PullUps_g10_c01'
p103
I24
sS'v_PullUps_g10_c02'
p104
I29
sS'v_PushUps_g10_c04'
p105
I15
sS'v_PullUps_g10_c04'
p106
I18
sS'v_HulaHoop_g12_c04'
p107
I20
sS'v_Lunges_g17_c03'
p108
I51
sS'v_Lunges_g17_c02'
p109
I53
sS'v_WallPushups_g12_c05'
p110
I22
sS'v_Lunges_g14_c03'
p111
I53
sS'v_JumpRope_g09_c04'
p112
I86
sS'v_Lunges_g14_c01'
p113
I52
sS'v_Lunges_g14_c06'
p114
I52
sS'v_Lunges_g14_c07'
p115
I52
sS'v_WallPushups_g12_c03'
p116
I24
sS'v_Lunges_g14_c05'
p117
I52
sS'v_JumpRope_g16_c05'
p118
I82
sS'v_HandStandPushups_g23_c02'
p119
I38
sS'v_HandstandWalking_g08_c04'
p120
I28
sS'v_HulaHoop_g15_c05'
p121
I21
sS'v_HulaHoop_g15_c04'
p122
I17
sS'v_HulaHoop_g15_c03'
p123
I18
sS'v_HulaHoop_g15_c02'
p124
I18
sS'v_BenchPress_g16_c01'
p125
I22
sS'v_HandstandWalking_g08_c02'
p126
I27
sS'v_HandStandPushups_g10_c02'
p127
I15
sS'v_BenchPress_g08_c05'
p128
I38
sS'v_WallPushups_g11_c05'
p129
I25
sS'v_PullUps_g09_c04'
p130
I17
sS'v_BodyWeightSquats_g16_c04'
p131
I16
sS'v_HandStandPushups_g14_c01'
p132
I22
sS'v_BodyWeightSquats_g16_c02'
p133
I16
sS'v_BodyWeightSquats_g16_c01'
p134
I15
sS'v_PullUps_g11_c01'
p135
I16
sS'v_HandStandPushups_g23_c01'
p136
I37
sS'v_Punch_g10_c04'
p137
I21
sS'v_HulaHoop_g08_c01'
p138
I19
sS'v_PushUps_g18_c03'
p139
I16
sS'v_PushUps_g18_c02'
p140
I15
sS'v_PushUps_g18_c01'
p141
I15
sS'v_PullUps_g25_c03'
p142
I12
sS'v_PullUps_g25_c04'
p143
I14
sS'v_JumpingJack_g16_c01'
p144
I14
sS'v_PushUps_g18_c04'
p145
I15
sS'v_PommelHorse_g19_c01'
p146
I52
sS'v_BenchPress_g08_c02'
p147
I13
sS'v_PommelHorse_g19_c03'
p148
I49
sS'v_CleanAndJerk_g12_c01'
p149
I34
sS'v_PommelHorse_g19_c05'
p150
I71
sS'v_PommelHorse_g19_c04'
p151
I66
sS'v_CleanAndJerk_g12_c04'
p152
I28
sS'v_CleanAndJerk_g12_c05'
p153
I28
sS'v_Punch_g12_c01'
p154
I61
sS'v_Punch_g12_c03'
p155
I58
sS'v_Punch_g12_c02'
p156
I61
sS'v_HandStandPushups_g25_c06'
p157
I38
sS'v_Punch_g12_c04'
p158
I61
sS'v_Punch_g12_c07'
p159
I61
sS'v_Punch_g12_c06'
p160
I61
sS'v_BodyWeightSquats_g23_c03'
p161
I15
sS'v_HandStandPushups_g24_c02'
p162
I29
sS'v_HandStandPushups_g24_c03'
p163
I22
sS'v_HandStandPushups_g24_c04'
p164
I18
sS'v_BodyWeightSquats_g21_c03'
p165
I11
sS'v_BodyWeightSquats_g21_c02'
p166
I13
sS'v_PullUps_g09_c02'
p167
I17
sS'v_JumpingJack_g13_c02'
p168
I19
sS'v_WallPushups_g24_c03'
p169
I14
sS'v_HandStandPushups_g14_c03'
p170
I26
sS'v_HandstandWalking_g17_c02'
p171
I31
sS'v_JumpingJack_g20_c01'
p172
I21
sS'v_HulaHoop_g12_c01'
p173
I21
sS'v_WallPushups_g22_c03'
p174
I17
sS'v_JumpingJack_g20_c04'
p175
I16
sS'v_PullUps_g21_c01'
p176
I28
sS'v_PullUps_g21_c02'
p177
I30
sS'v_JumpRope_g18_c07'
p178
I68
sS'v_Lunges_g16_c04'
p179
I51
sS'v_PullUps_g09_c03'
p180
I18
sS'v_BodyWeightSquats_g15_c02'
p181
I25
sS'v_BodyWeightSquats_g15_c03'
p182
I28
sS'v_PullUps_g12_c02'
p183
I13
sS'v_Lunges_g16_c01'
p184
I52
sS'v_Lunges_g16_c02'
p185
I49
sS'v_Lunges_g16_c03'
p186
I53
sS'v_WallPushups_g23_c03'
p187
I15
sS'v_Lunges_g17_c01'
p188
I50
sS'v_HulaHoop_g12_c02'
p189
I19
sS'v_HandstandWalking_g09_c01'
p190
I30
sS'v_WallPushups_g19_c01'
p191
I18
sS'v_PushUps_g10_c03'
p192
I14
sS'v_WallPushups_g19_c04'
p193
I18
sS'v_WallPushups_g19_c05'
p194
I15
sS'v_HulaHoop_g10_c02'
p195
I21
sS'v_WallPushups_g23_c04'
p196
I13
sS'v_HulaHoop_g10_c01'
p197
I18
sS'v_WallPushups_g23_c01'
p198
I29
sS'v_HulaHoop_g10_c04'
p199
I21
sS'v_WallPushups_g23_c02'
p200
I23
sS'v_CleanAndJerk_g21_c04'
p201
I23
sS'v_BodyWeightSquats_g17_c04'
p202
I29
sS'v_PullUps_g08_c04'
p203
I18
sS'v_BodyWeightSquats_g17_c02'
p204
I35
sS'v_BodyWeightSquats_g17_c03'
p205
I35
sS'v_CleanAndJerk_g21_c02'
p206
I20
sS'v_BodyWeightSquats_g17_c01'
p207
I37
sS'v_JumpingJack_g14_c01'
p208
I17
sS'v_PommelHorse_g09_c04'
p209
I55
sS'v_JumpingJack_g14_c03'
p210
I10
sS'v_JumpingJack_g14_c04'
p211
I11
sS'v_PommelHorse_g09_c03'
p212
I43
sS'v_PommelHorse_g09_c01'
p213
I42
sS'v_Punch_g22_c04'
p214
I61
sS'v_WallPushups_g09_c01'
p215
I16
sS'v_PullUps_g08_c01'
p216
I17
sS'v_PommelHorse_g13_c06'
p217
I51
sS'v_HandStandPushups_g08_c04'
p218
I27
sS'v_BenchPress_g17_c04'
p219
I63
sS'v_HandStandPushups_g23_c04'
p220
I23
sS'v_HandStandPushups_g08_c05'
p221
I16
sS'v_JumpRope_g16_c03'
p222
I85
sS'v_PushUps_g10_c01'
p223
I14
sS'v_Punch_g10_c06'
p224
I27
sS'v_Punch_g10_c05'
p225
I16
sS'v_HulaHoop_g08_c04'
p226
I17
sS'v_Punch_g10_c03'
p227
I14
sS'v_Punch_g10_c02'
p228
I29
sS'v_Punch_g10_c01'
p229
I35
sS'v_PommelHorse_g13_c02'
p230
I51
sS'v_PullUps_g21_c04'
p231
I33
sS'v_BodyWeightSquats_g23_c02'
p232
I16
sS'v_BodyWeightSquats_g23_c01'
p233
I11
sS'v_HandstandWalking_g17_c01'
p234
I31
sS'v_PommelHorse_g13_c01'
p235
I51
sS'v_HandstandWalking_g17_c03'
p236
I31
sS'v_BodyWeightSquats_g23_c04'
p237
I14
sS'v_HandStandPushups_g08_c01'
p238
I22
sS'v_Lunges_g21_c03'
p239
I52
sS'v_JumpingJack_g19_c02'
p240
I14
sS'v_HulaHoop_g17_c05'
p241
I20
sS'v_PommelHorse_g12_c01'
p242
I58
sS'v_PushUps_g15_c04'
p243
I19
sS'v_JumpingJack_g17_c04'
p244
I16
sS'v_PushUps_g15_c02'
p245
I18
sS'v_JumpingJack_g17_c02'
p246
I16
sS'v_JumpingJack_g17_c01'
p247
I16
sS'v_PushUps_g15_c01'
p248
I22
sS'v_CleanAndJerk_g17_c03'
p249
I28
sS'v_BenchPress_g15_c01'
p250
I14
sS'v_Punch_g23_c05'
p251
I61
sS'v_HandStandPushups_g13_c02'
p252
I18
sS'v_Punch_g23_c07'
p253
I61
sS'v_Punch_g23_c06'
p254
I61
sS'v_Punch_g23_c01'
p255
I61
sS'v_PommelHorse_g14_c01'
p256
I61
sS'v_PommelHorse_g14_c02'
p257
I61
sS'v_CleanAndJerk_g08_c02'
p258
I22
sS'v_JumpRope_g14_c02'
p259
I51
sS'v_BodyWeightSquats_g22_c02'
p260
I13
sS'v_CleanAndJerk_g21_c03'
p261
I25
sS'v_JumpRope_g14_c03'
p262
I50
sS'v_BodyWeightSquats_g22_c03'
p263
I28
sS'v_WallPushups_g21_c03'
p264
I31
sS'v_PommelHorse_g22_c07'
p265
I84
sS'v_HulaHoop_g12_c06'
p266
I18
sS'v_CleanAndJerk_g23_c01'
p267
I14
sS'v_Lunges_g20_c03'
p268
I10
sS'v_Lunges_g20_c02'
p269
I10
sS'v_Lunges_g20_c01'
p270
I10
sS'v_WallPushups_g21_c04'
p271
I29
sS'v_BenchPress_g15_c02'
p272
I13
sS'v_Lunges_g12_c01'
p273
I51
sS'v_Lunges_g12_c02'
p274
I53
sS'v_Lunges_g12_c03'
p275
I51
sS'v_Lunges_g12_c04'
p276
I51
sS'v_HandStandPushups_g13_c04'
p277
I19
sS'v_PullUps_g15_c04'
p278
I33
sS'v_JumpingJack_g15_c01'
p279
I14
sS'v_JumpingJack_g17_c03'
p280
I17
sS'v_JumpingJack_g15_c03'
p281
I14
sS'v_PommelHorse_g22_c04'
p282
I60
sS'v_Punch_g14_c06'
p283
I61
sS'v_JumpingJack_g15_c04'
p284
I14
sS'v_PushUps_g15_c03'
p285
I18
sS'v_HandstandWalking_g09_c04'
p286
I31
sS'v_BodyWeightSquats_g25_c03'
p287
I24
sS'v_JumpingJack_g22_c04'
p288
I10
sS'v_JumpingJack_g22_c03'
p289
I15
sS'v_JumpingJack_g22_c02'
p290
I11
sS'v_JumpingJack_g22_c01'
p291
I15
sS'v_HandstandWalking_g09_c03'
p292
I30
sS'v_HandstandWalking_g24_c06'
p293
I76
sS'v_HandstandWalking_g24_c05'
p294
I63
sS'v_HandstandWalking_g24_c04'
p295
I65
sS'v_HandstandWalking_g24_c03'
p296
I65
sS'v_HandstandWalking_g24_c02'
p297
I67
sS'v_HandstandWalking_g24_c01'
p298
I68
sS'v_WallPushups_g15_c04'
p299
I11
sS'v_WallPushups_g15_c05'
p300
I23
sS'v_WallPushups_g15_c02'
p301
I13
sS'v_WallPushups_g15_c03'
p302
I13
sS'v_HulaHoop_g08_c05'
p303
I21
sS'v_WallPushups_g15_c01'
p304
I15
sS'v_Punch_g17_c04'
p305
I61
sS'v_Punch_g17_c05'
p306
I61
sS'v_Punch_g17_c06'
p307
I61
sS'v_Punch_g17_c07'
p308
I61
sS'v_Punch_g17_c01'
p309
I61
sS'v_Punch_g17_c02'
p310
I61
sS'v_WallPushups_g20_c04'
p311
I21
sS'v_JumpRope_g08_c03'
p312
I88
sS'v_HandstandWalking_g15_c02'
p313
I40
sS'v_HandstandWalking_g15_c01'
p314
I42
sS'v_JumpRope_g08_c07'
p315
I77
sS'v_JumpRope_g08_c06'
p316
I60
sS'v_Lunges_g17_c04'
p317
I51
sS'v_JumpRope_g08_c04'
p318
I59
sS'v_WallPushups_g16_c01'
p319
I37
sS'v_WallPushups_g16_c03'
p320
I31
sS'v_WallPushups_g16_c02'
p321
I31
sS'v_WallPushups_g16_c05'
p322
I28
sS'v_WallPushups_g16_c04'
p323
I32
sS'v_WallPushups_g16_c07'
p324
I47
sS'v_WallPushups_g16_c06'
p325
I36
sS'v_Punch_g08_c04'
p326
I51
sS'v_Punch_g08_c05'
p327
I51
sS'v_Punch_g08_c06'
p328
I51
sS'v_JumpingJack_g12_c01'
p329
I16
sS'v_HandStandPushups_g09_c03'
p330
I22
sS'v_HandStandPushups_g09_c02'
p331
I19
sS'v_HandStandPushups_g09_c01'
p332
I19
sS'v_Punch_g08_c03'
p333
I51
sS'v_JumpRope_g16_c02'
p334
I82
sS'v_WallPushups_g20_c02'
p335
I23
sS'v_BodyWeightSquats_g14_c01'
p336
I23
sS'v_BodyWeightSquats_g11_c02'
p337
I20
sS'v_JumpRope_g24_c04'
p338
I72
sS'v_PullUps_g11_c03'
p339
I16
sS'v_PommelHorse_g14_c04'
p340
I60
sS'v_BenchPress_g22_c07'
p341
I27
sS'v_HandStandPushups_g23_c05'
p342
I38
sS'v_CleanAndJerk_g20_c04'
p343
I67
sS'v_JumpingJack_g08_c03'
p344
I14
sS'v_JumpingJack_g10_c03'
p345
I12
sS'v_JumpingJack_g08_c01'
p346
I14
sS'v_JumpRope_g24_c06'
p347
I65
sS'v_JumpingJack_g08_c04'
p348
I14
sS'v_Punch_g24_c06'
p349
I55
sS'v_Punch_g24_c07'
p350
I61
sS'v_Punch_g24_c04'
p351
I53
sS'v_Punch_g24_c05'
p352
I61
sS'v_Punch_g24_c02'
p353
I61
sS'v_Punch_g24_c03'
p354
I58
sS'v_PushUps_g08_c03'
p355
I17
sS'v_Punch_g24_c01'
p356
I61
sS'v_Punch_g22_c07'
p357
I61
sS'v_WallPushups_g20_c03'
p358
I22
sS'v_PullUps_g24_c03'
p359
I31
sS'v_JumpingJack_g15_c02'
p360
I12
sS'v_PommelHorse_g24_c01'
p361
I54
sS'v_PommelHorse_g10_c03'
p362
I51
sS'v_WallPushups_g11_c04'
p363
I26
sS'v_Lunges_g22_c01'
p364
I39
sS'v_BodyWeightSquats_g14_c03'
p365
I23
sS'v_BodyWeightSquats_g14_c02'
p366
I23
sS'v_Lunges_g22_c04'
p367
I42
sS'v_HandStandPushups_g16_c07'
p368
I33
sS'v_HandStandPushups_g16_c06'
p369
I31
sS'v_HandStandPushups_g16_c05'
p370
I21
sS'v_PommelHorse_g24_c02'
p371
I51
sS'v_HandStandPushups_g16_c03'
p372
I26
sS'v_HandStandPushups_g16_c02'
p373
I26
sS'v_HandStandPushups_g16_c01'
p374
I25
sS'v_BodyWeightSquats_g12_c03'
p375
I25
sS'v_PushUps_g20_c04'
p376
I19
sS'v_Lunges_g11_c07'
p377
I51
sS'v_JumpRope_g17_c05'
p378
I97
sS'v_JumpRope_g17_c04'
p379
I104
sS'v_JumpRope_g17_c03'
p380
I99
sS'v_HandStandPushups_g25_c07'
p381
I14
sS'v_JumpRope_g17_c01'
p382
I105
sS'v_PommelHorse_g13_c07'
p383
I80
sS'v_JumpingJack_g20_c02'
p384
I20
sS'v_JumpRope_g25_c05'
p385
I66
sS'v_Punch_g19_c06'
p386
I61
sS'v_Punch_g19_c07'
p387
I61
sS'v_WallPushups_g10_c01'
p388
I19
sS'v_Punch_g19_c05'
p389
I61
sS'v_Punch_g19_c02'
p390
I61
sS'v_Punch_g19_c03'
p391
I61
sS'v_WallPushups_g10_c05'
p392
I13
sS'v_Punch_g19_c01'
p393
I61
sS'v_PushUps_g13_c04'
p394
I12
sS'v_PushUps_g20_c03'
p395
I20
sS'v_BodyWeightSquats_g12_c02'
p396
I29
sS'v_PushUps_g20_c01'
p397
I19
sS'v_PommelHorse_g08_c03'
p398
I42
sS'v_PushUps_g13_c01'
p399
I15
sS'v_PushUps_g13_c02'
p400
I15
sS'v_Lunges_g11_c02'
p401
I49
sS'v_HandStandPushups_g21_c05'
p402
I21
sS'v_HandStandPushups_g21_c04'
p403
I32
sS'v_JumpingJack_g25_c06'
p404
I15
sS'v_HandStandPushups_g21_c06'
p405
I21
sS'v_HandStandPushups_g21_c01'
p406
I17
sS'v_JumpingJack_g25_c01'
p407
I15
sS'v_HandStandPushups_g21_c03'
p408
I25
sS'v_JumpingJack_g25_c03'
p409
I15
sS'v_HandstandWalking_g25_c04'
p410
I21
sS'v_PullUps_g15_c02'
p411
I33
sS'v_HandstandWalking_g25_c02'
p412
I21
sS'v_HandstandWalking_g25_c03'
p413
I21
sS'v_HandstandWalking_g25_c01'
p414
I22
sS'v_WallPushups_g14_c05'
p415
I24
sS'v_WallPushups_g14_c04'
p416
I27
sS'v_WallPushups_g14_c03'
p417
I25
sS'v_WallPushups_g14_c02'
p418
I28
sS'v_WallPushups_g14_c01'
p419
I22
sS'v_BodyWeightSquats_g12_c01'
p420
I48
sS'v_JumpingJack_g11_c04'
p421
I14
sS'v_HulaHoop_g19_c03'
p422
I18
sS'v_HulaHoop_g19_c02'
p423
I19
sS'v_HulaHoop_g19_c01'
p424
I18
sS'v_BenchPress_g20_c03'
p425
I19
sS'v_PushUps_g24_c01'
p426
I15
sS'v_HulaHoop_g19_c04'
p427
I19
sS'v_PommelHorse_g21_c04'
p428
I54
sS'v_HandStandPushups_g15_c01'
p429
I23
sS'v_HandStandPushups_g15_c02'
p430
I22
sS'v_HandStandPushups_g15_c03'
p431
I22
sS'v_HandStandPushups_g15_c04'
p432
I25
sS'v_PommelHorse_g21_c01'
p433
I50
sS'v_PommelHorse_g21_c02'
p434
I51
sS'v_PommelHorse_g21_c03'
p435
I51
sS'v_CleanAndJerk_g23_c02'
p436
I16
sS'v_CleanAndJerk_g23_c03'
p437
I16
sS'v_CleanAndJerk_g10_c04'
p438
I53
sS'v_HandStandPushups_g23_c03'
p439
I43
sS'v_CleanAndJerk_g10_c01'
p440
I39
sS'v_CleanAndJerk_g10_c02'
p441
I37
sS'v_CleanAndJerk_g10_c03'
p442
I41
sS'v_BodyWeightSquats_g12_c04'
p443
I39
sS'v_JumpingJack_g16_c04'
p444
I11
sS'v_Lunges_g20_c04'
p445
I10
sS'v_JumpingJack_g16_c02'
p446
I12
sS'v_JumpingJack_g16_c03'
p447
I12
sS'v_BenchPress_g11_c01'
p448
I20
sS'v_HandStandPushups_g22_c03'
p449
I24
sS'v_WallPushups_g21_c07'
p450
I11
sS'v_HandstandWalking_g10_c04'
p451
I40
sS'v_HandstandWalking_g10_c02'
p452
I30
sS'v_HandstandWalking_g10_c03'
p453
I30
sS'v_HandstandWalking_g10_c01'
p454
I32
sS'v_HandStandPushups_g17_c04'
p455
I16
sS'v_HandStandPushups_g17_c05'
p456
I19
sS'v_HandStandPushups_g17_c02'
p457
I20
sS'v_HandStandPushups_g17_c03'
p458
I16
sS'v_HandStandPushups_g17_c01'
p459
I18
sS'v_BenchPress_g15_c03'
p460
I15
sS'v_JumpingJack_g18_c03'
p461
I16
sS'v_PushUps_g14_c04'
p462
I19
sS'v_PushUps_g14_c03'
p463
I21
sS'v_PullUps_g08_c02'
p464
I18
sS'v_PushUps_g14_c01'
p465
I21
sS'v_Lunges_g21_c04'
p466
I51
sS'v_Lunges_g21_c05'
p467
I48
sS'v_Lunges_g21_c02'
p468
I49
sS'v_WallPushups_g13_c03'
p469
I20
sS'v_Lunges_g21_c01'
p470
I54
sS'v_PushUps_g22_c04'
p471
I20
sS'v_Lunges_g13_c02'
p472
I51
sS'v_PommelHorse_g20_c05'
p473
I51
sS'v_PushUps_g22_c01'
p474
I12
sS'v_PushUps_g22_c02'
p475
I22
sS'v_PushUps_g22_c03'
p476
I14
sS'v_Lunges_g13_c05'
p477
I51
sS'v_BodyWeightSquats_g10_c02'
p478
I33
sS'v_Lunges_g13_c04'
p479
I49
sS'v_JumpRope_g24_c01'
p480
I69
sS'v_JumpRope_g21_c05'
p481
I84
sS'v_JumpRope_g16_c04'
p482
I85
sS'v_JumpRope_g24_c02'
p483
I66
sS'v_JumpRope_g24_c05'
p484
I60
sS'v_JumpRope_g21_c01'
p485
I83
sS'v_JumpRope_g21_c02'
p486
I75
sS'v_JumpRope_g16_c01'
p487
I91
sS'v_HandStandPushups_g11_c06'
p488
I23
sS'v_PommelHorse_g10_c01'
p489
I52
sS'v_PommelHorse_g10_c02'
p490
I52
sS'v_PullUps_g24_c02'
p491
I33
sS'v_PommelHorse_g10_c04'
p492
I74
sS'v_PullUps_g24_c04'
p493
I34
sS'v_CleanAndJerk_g14_c02'
p494
I46
sS'v_Lunges_g11_c06'
p495
I52
sS'v_Lunges_g11_c05'
p496
I46
sS'v_Lunges_g11_c04'
p497
I49
sS'v_Lunges_g11_c03'
p498
I52
sS'v_PullUps_g17_c02'
p499
I32
sS'v_Lunges_g11_c01'
p500
I54
sS'v_HulaHoop_g18_c02'
p501
I22
sS'v_HulaHoop_g18_c03'
p502
I19
sS'v_HulaHoop_g18_c01'
p503
I20
sS'v_PullUps_g25_c01'
p504
I16
sS'v_HulaHoop_g18_c04'
p505
I25
sS'v_PommelHorse_g23_c02'
p506
I43
sS'v_PommelHorse_g23_c03'
p507
I43
sS'v_PommelHorse_g23_c01'
p508
I42
sS'v_JumpRope_g18_c02'
p509
I70
sS'v_PommelHorse_g23_c04'
p510
I60
sS'v_HulaHoop_g24_c03'
p511
I20
sS'v_HulaHoop_g24_c02'
p512
I19
sS'v_HulaHoop_g24_c01'
p513
I19
sS'v_CleanAndJerk_g25_c03'
p514
I42
sS'v_HulaHoop_g24_c04'
p515
I18
sS'v_HandstandWalking_g21_c02'
p516
I26
sS'v_BenchPress_g10_c01'
p517
I23
sS'v_HandstandWalking_g21_c01'
p518
I27
sS'v_PushUps_g11_c02'
p519
I12
sS'v_HandstandWalking_g21_c03'
p520
I26
sS'v_HandStandPushups_g08_c02'
p521
I20
sS'v_CleanAndJerk_g12_c02'
p522
I21
sS'v_HulaHoop_g14_c04'
p523
I45
sS'v_PommelHorse_g20_c06'
p524
I76
sS'v_HulaHoop_g14_c05'
p525
I45
sS'v_JumpRope_g09_c06'
p526
I83
sS'v_HulaHoop_g14_c02'
p527
I44
sS'v_CleanAndJerk_g22_c04'
p528
I49
sS'v_HulaHoop_g14_c03'
p529
I43
sS'v_PushUps_g16_c01'
p530
I15
sS'v_PushUps_g16_c03'
p531
I7
sS'v_BenchPress_g10_c04'
p532
I27
sS'v_BodyWeightSquats_g18_c01'
p533
I41
sS'v_PushUps_g16_c04'
p534
I6
sS'v_CleanAndJerk_g12_c06'
p535
I31
sS'v_Lunges_g23_c01'
p536
I41
sS'v_Lunges_g23_c02'
p537
I41
sS'v_HulaHoop_g14_c01'
p538
I44
sS'v_Lunges_g23_c04'
p539
I41
sS'v_Lunges_g23_c05'
p540
I53
sS'v_Lunges_g23_c06'
p541
I50
sS'v_Punch_g18_c04'
p542
I57
sS'v_Punch_g18_c03'
p543
I61
sS'v_HandstandWalking_g19_c02'
p544
I47
sS'v_HulaHoop_g15_c01'
p545
I17
sS'v_JumpRope_g23_c03'
p546
I57
sS'v_JumpRope_g23_c01'
p547
I58
sS'v_Punch_g18_c01'
p548
I61
sS'v_JumpRope_g23_c04'
p549
I68
sS'v_JumpRope_g23_c05'
p550
I41
sS'v_HandstandWalking_g11_c04'
p551
I27
sS'v_PullUps_g24_c01'
p552
I26
sS'v_Lunges_g10_c06'
p553
I54
sS'v_Lunges_g10_c04'
p554
I53
sS'v_Lunges_g10_c05'
p555
I50
sS'v_Lunges_g10_c02'
p556
I53
sS'v_Lunges_g10_c03'
p557
I51
sS'v_JumpRope_g14_c01'
p558
I50
sS'v_Lunges_g10_c01'
p559
I52
sS'v_BenchPress_g21_c01'
p560
I38
sS'v_PommelHorse_g25_c04'
p561
I65
sS'v_BenchPress_g21_c03'
p562
I19
sS'v_BenchPress_g21_c02'
p563
I23
sS'v_BenchPress_g21_c04'
p564
I59
sS'v_JumpRope_g21_c04'
p565
I85
sS'v_PushUps_g17_c03'
p566
I15
sS'v_BenchPress_g10_c03'
p567
I49
sS'v_PushUps_g23_c02'
p568
I13
sS'v_PommelHorse_g20_c03'
p569
I54
sS'v_HulaHoop_g16_c01'
p570
I19
sS'v_WallPushups_g25_c05'
p571
I29
sS'v_WallPushups_g25_c04'
p572
I31
sS'v_WallPushups_g25_c03'
p573
I31
sS'v_HulaHoop_g16_c05'
p574
I21
sS'v_HulaHoop_g16_c06'
p575
I19
sS'v_HandStandPushups_g13_c06'
p576
I20
sS'v_PommelHorse_g15_c04'
p577
I49
sS'v_PommelHorse_g15_c01'
p578
I43
sS'v_PommelHorse_g15_c03'
p579
I42
sS'v_PommelHorse_g15_c02'
p580
I43
sS'v_PushUps_g25_c04'
p581
I21
sS'v_PushUps_g25_c03'
p582
I23
sS'v_PushUps_g25_c02'
p583
I22
sS'v_PushUps_g25_c01'
p584
I19
sS'v_PullUps_g11_c04'
p585
I17
sS'v_BenchPress_g18_c05'
p586
I23
sS'v_HandstandWalking_g09_c02'
p587
I29
sS'v_BenchPress_g18_c07'
p588
I16
sS'v_HandStandPushups_g14_c02'
p589
I22
sS'v_BenchPress_g18_c01'
p590
I19
sS'v_HandStandPushups_g14_c04'
p591
I34
sS'v_BenchPress_g18_c03'
p592
I55
sS'v_BenchPress_g18_c02'
p593
I21
sS'v_CleanAndJerk_g08_c01'
p594
I48
sS'v_Punch_g11_c06'
p595
I61
sS'v_BodyWeightSquats_g24_c01'
p596
I47
sS'v_HandStandPushups_g22_c01'
p597
I27
sS'v_PommelHorse_g08_c02'
p598
I42
sS'v_BodyWeightSquats_g25_c01'
p599
I21
sS'v_PushUps_g11_c03'
p600
I12
sS'v_HulaHoop_g08_c03'
p601
I19
sS'v_PushUps_g11_c01'
p602
I14
sS'v_BodyWeightSquats_g25_c05'
p603
I22
sS'v_BodyWeightSquats_g25_c04'
p604
I22
sS'v_PushUps_g11_c04'
p605
I13
sS'v_Punch_g25_c06'
p606
I61
sS'v_WallPushups_g09_c04'
p607
I22
sS'v_Punch_g11_c03'
p608
I60
sS'v_HulaHoop_g13_c05'
p609
I18
sS'v_Punch_g25_c04'
p610
I61
sS'v_HulaHoop_g13_c04'
p611
I21
sS'v_JumpRope_g21_c07'
p612
I73
sS'v_Lunges_g09_c01'
p613
I39
sS'v_Lunges_g09_c02'
p614
I41
sS'v_Lunges_g09_c03'
p615
I42
sS'v_Lunges_g09_c04'
p616
I42
sS'v_PullUps_g08_c03'
p617
I18
sS'v_Punch_g25_c02'
p618
I61
sS'v_HandstandWalking_g15_c03'
p619
I42
sS'v_PullUps_g10_c03'
p620
I34
sS'v_BenchPress_g15_c05'
p621
I14
sS'v_PullUps_g16_c01'
p622
I23
sS'v_JumpRope_g08_c02'
p623
I75
sS'v_PullUps_g16_c02'
p624
I23
sS'v_PullUps_g16_c03'
p625
I24
sS'v_HandStandPushups_g13_c05'
p626
I24
sS'v_BenchPress_g08_c03'
p627
I12
sS'v_BenchPress_g09_c07'
p628
I22
sS'v_BenchPress_g09_c06'
p629
I43
sS'v_PullUps_g16_c04'
p630
I25
sS'v_BenchPress_g09_c04'
p631
I14
sS'v_BenchPress_g14_c01'
p632
I20
sS'v_BodyWeightSquats_g08_c04'
p633
I21
sS'v_BodyWeightSquats_g08_c02'
p634
I22
sS'v_BodyWeightSquats_g08_c03'
p635
I10
sS'v_CleanAndJerk_g19_c04'
p636
I65
sS'v_BodyWeightSquats_g08_c01'
p637
I16
sS'v_BodyWeightSquats_g25_c07'
p638
I26
sS'v_WallPushups_g20_c05'
p639
I21
sS'v_WallPushups_g19_c02'
p640
I18
sS'v_BenchPress_g13_c04'
p641
I30
sS'v_Lunges_g14_c02'
p642
I53
sS'v_WallPushups_g21_c02'
p643
I17
sS'v_PullUps_g21_c03'
p644
I31
sS'v_JumpRope_g08_c05'
p645
I86
sS'v_WallPushups_g12_c04'
p646
I25
sS'v_HulaHoop_g11_c03'
p647
I35
sS'v_HulaHoop_g11_c02'
p648
I41
sS'v_HulaHoop_g11_c01'
p649
I40
sS'v_HandstandWalking_g15_c04'
p650
I46
sS'v_WallPushups_g22_c01'
p651
I16
sS'v_WallPushups_g22_c02'
p652
I19
sS'v_HulaHoop_g11_c04'
p653
I31
sS'v_WallPushups_g09_c03'
p654
I23
sS'v_JumpingJack_g09_c03'
p655
I15
sS'v_CleanAndJerk_g15_c01'
p656
I19
sS'v_WallPushups_g12_c01'
p657
I21
sS'v_CleanAndJerk_g15_c03'
p658
I34
sS'v_CleanAndJerk_g15_c02'
p659
I17
sS'v_CleanAndJerk_g15_c04'
p660
I23
sS'v_BenchPress_g13_c05'
p661
I29
sS'v_BodyWeightSquats_g25_c02'
p662
I23
sS'v_WallPushups_g21_c01'
p663
I15
sS'v_HandstandWalking_g22_c04'
p664
I31
sS'v_HandstandWalking_g22_c01'
p665
I25
sS'v_Lunges_g14_c04'
p666
I50
sS'v_HandstandWalking_g22_c03'
p667
I31
sS'v_HandstandWalking_g22_c02'
p668
I30
sS'v_PullUps_g23_c02'
p669
I32
sS'v_PullUps_g23_c03'
p670
I32
sS'v_BenchPress_g16_c03'
p671
I21
sS'v_PullUps_g23_c01'
p672
I30
sS'v_PullUps_g23_c04'
p673
I33
sS'v_JumpRope_g08_c01'
p674
I84
sS'v_PushUps_g16_c02'
p675
I16
sS'v_JumpingJack_g09_c05'
p676
I16
sS'v_HandstandWalking_g13_c01'
p677
I15
sS'v_HandstandWalking_g13_c03'
p678
I15
sS'v_HandstandWalking_g13_c02'
p679
I14
sS'v_HandstandWalking_g13_c04'
p680
I17
sS'v_CleanAndJerk_g13_c02'
p681
I21
sS'v_Punch_g23_c03'
p682
I61
sS'v_CleanAndJerk_g21_c01'
p683
I21
sS'v_CleanAndJerk_g13_c01'
p684
I17
sS'v_JumpRope_g21_c03'
p685
I88
sS'v_Punch_g22_c06'
p686
I61
sS'v_HandStandPushups_g09_c04'
p687
I16
sS'v_PullUps_g09_c01'
p688
I18
sS'v_PommelHorse_g18_c04'
p689
I47
sS'v_WallPushups_g12_c02'
p690
I25
sS'v_Punch_g08_c01'
p691
I51
sS'v_HandstandWalking_g20_c03'
p692
I15
sS'v_Lunges_g23_c03'
p693
I42
sS'v_Punch_g08_c02'
p694
I51
sS'v_BodyWeightSquats_g14_c04'
p695
I23
sS'v_BenchPress_g13_c03'
p696
I41
sS'v_HulaHoop_g20_c07'
p697
I21
sS'v_HulaHoop_g20_c06'
p698
I21
sS'v_HulaHoop_g20_c05'
p699
I20
sS'v_HulaHoop_g20_c04'
p700
I21
sS'v_HulaHoop_g20_c03'
p701
I20
sS'v_HulaHoop_g20_c02'
p702
I19
sS'v_HulaHoop_g20_c01'
p703
I21
sS'v_HulaHoop_g25_c02'
p704
I19
sS'v_Punch_g18_c07'
p705
I61
sS'v_Punch_g18_c06'
p706
I61
sS'v_Punch_g18_c05'
p707
I61
sS'v_HandstandWalking_g19_c04'
p708
I54
sS'v_HandstandWalking_g19_c03'
p709
I67
sS'v_Punch_g18_c02'
p710
I61
sS'v_HandstandWalking_g19_c01'
p711
I45
sS'v_HandstandWalking_g08_c01'
p712
I28
sS'v_WallPushups_g21_c06'
p713
I23
sS'v_BenchPress_g16_c02'
p714
I20
sS'v_WallPushups_g09_c02'
p715
I18
sS'v_HandstandWalking_g08_c03'
p716
I27
sS'v_Lunges_g24_c03'
p717
I39
sS'v_Lunges_g24_c02'
p718
I39
sS'v_Lunges_g24_c01'
p719
I39
sS'v_HandstandWalking_g20_c04'
p720
I18
sS'v_WallPushups_g20_c06'
p721
I18
sS'v_HulaHoop_g13_c03'
p722
I19
sS'v_Lunges_g24_c04'
p723
I36
sS'v_HandstandWalking_g17_c04'
p724
I44
sS'v_CleanAndJerk_g22_c03'
p725
I55
sS'v_CleanAndJerk_g22_c02'
p726
I58
sS'v_WallPushups_g21_c05'
p727
I27
sS'v_CleanAndJerk_g22_c01'
p728
I47
sS'v_PommelHorse_g19_c06'
p729
I59
sS'v_BenchPress_g13_c02'
p730
I19
sS'v_HandstandWalking_g20_c02'
p731
I14
sS'v_HandstandWalking_g20_c01'
p732
I14
sS'v_BenchPress_g13_c01'
p733
I29
sS'v_BenchPress_g13_c06'
p734
I21
sS'v_BenchPress_g13_c07'
p735
I21
sS'v_BodyWeightSquats_g18_c03'
p736
I43
sS'v_BodyWeightSquats_g18_c02'
p737
I43
sS'v_JumpRope_g11_c05'
p738
I83
sS'v_JumpRope_g11_c04'
p739
I87
sS'v_JumpRope_g11_c07'
p740
I83
sS'v_JumpRope_g11_c06'
p741
I86
sS'v_JumpRope_g11_c01'
p742
I90
sS'v_JumpRope_g11_c03'
p743
I83
sS'v_JumpRope_g11_c02'
p744
I90
sS'v_WallPushups_g18_c03'
p745
I22
sS'v_WallPushups_g18_c02'
p746
I26
sS'v_WallPushups_g18_c01'
p747
I23
sS'v_Punch_g16_c06'
p748
I61
sS'v_Punch_g16_c01'
p749
I61
sS'v_Punch_g16_c03'
p750
I61
sS'v_WallPushups_g18_c04'
p751
I25
sS'v_BenchPress_g19_c04'
p752
I50
sS'v_BenchPress_g19_c05'
p753
I25
sS'v_BenchPress_g19_c06'
p754
I21
sS'v_BenchPress_g19_c01'
p755
I19
sS'v_BenchPress_g19_c02'
p756
I18
sS'v_BenchPress_g19_c03'
p757
I17
sS'v_PommelHorse_g12_c06'
p758
I75
sS'v_PommelHorse_g12_c07'
p759
I79
sS'v_PommelHorse_g12_c04'
p760
I52
sS'v_PommelHorse_g12_c05'
p761
I96
sS'v_PommelHorse_g12_c02'
p762
I56
sS'v_PommelHorse_g12_c03'
p763
I50
sS'v_CleanAndJerk_g19_c03'
p764
I49
sS'v_CleanAndJerk_g19_c02'
p765
I46
sS'v_BodyWeightSquats_g16_c03'
p766
I17
sS'v_HandStandPushups_g15_c06'
p767
I21
sS'v_BenchPress_g12_c03'
p768
I39
sS'v_BenchPress_g12_c02'
p769
I13
sS'v_BenchPress_g23_c05'
p770
I26
sS'v_BenchPress_g23_c04'
p771
I33
sS'v_BenchPress_g23_c03'
p772
I36
sS'v_BenchPress_g12_c06'
p773
I15
sS'v_BenchPress_g23_c01'
p774
I27
sS'v_JumpingJack_g24_c04'
p775
I15
sS'v_PommelHorse_g11_c01'
p776
I40
sS'v_PommelHorse_g11_c03'
p777
I42
sS'v_PommelHorse_g11_c02'
p778
I42
sS'v_PommelHorse_g11_c04'
p779
I50
sS'v_JumpRope_g21_c06'
p780
I82
sS'v_Punch_g16_c05'
p781
I61
sS'v_Punch_g16_c04'
p782
I61
sS'v_BodyWeightSquats_g24_c04'
p783
I48
sS'v_JumpRope_g24_c03'
p784
I69
sS'v_Punch_g16_c07'
p785
I61
sS'v_BodyWeightSquats_g20_c04'
p786
I33
sS'v_BodyWeightSquats_g20_c05'
p787
I28
sS'v_BodyWeightSquats_g20_c06'
p788
I34
sS'v_Punch_g22_c03'
p789
I61
sS'v_BodyWeightSquats_g20_c01'
p790
I21
sS'v_BodyWeightSquats_g20_c02'
p791
I35
sS'v_BodyWeightSquats_g20_c03'
p792
I19
sS'v_JumpingJack_g24_c02'
p793
I16
sS'v_CleanAndJerk_g24_c01'
p794
I46
sS'v_HulaHoop_g25_c03'
p795
I19
sS'v_CleanAndJerk_g24_c03'
p796
I48
sS'v_HulaHoop_g25_c01'
p797
I20
sS'v_CleanAndJerk_g24_c04'
p798
I27
sS'v_HulaHoop_g25_c04'
p799
I20
sS'v_HulaHoop_g25_c05'
p800
I19
sS'v_Punch_g09_c01'
p801
I61
sS'v_Punch_g16_c02'
p802
I61
sS'v_WallPushups_g24_c04'
p803
I36
sS'v_BenchPress_g11_c04'
p804
I51
sS'v_JumpingJack_g10_c05'
p805
I11
sS'v_JumpingJack_g10_c06'
p806
I12
sS'v_PushUps_g08_c01'
p807
I17
sS'v_PullUps_g14_c02'
p808
I14
sS'v_BenchPress_g11_c03'
p809
I19
sS'v_Lunges_g25_c02'
p810
I53
sS'v_CleanAndJerk_g09_c03'
p811
I47
sS'v_JumpRope_g13_c01'
p812
I91
sS'v_Lunges_g25_c01'
p813
I48
sS'v_CleanAndJerk_g09_c04'
p814
I47
sS'v_JumpRope_g13_c04'
p815
I63
sS'v_BenchPress_g09_c01'
p816
I18
sS'v_PushUps_g14_c02'
p817
I20
sS'v_JumpingJack_g25_c04'
p818
I15
sS'v_Lunges_g19_c07'
p819
I49
sS'v_Lunges_g19_c06'
p820
I48
sS'v_Lunges_g19_c05'
p821
I52
sS'v_Lunges_g19_c04'
p822
I52
sS'v_Lunges_g19_c03'
p823
I50
sS'v_Lunges_g19_c02'
p824
I52
sS'v_Lunges_g19_c01'
p825
I53
sS'v_HandstandWalking_g23_c04'
p826
I69
sS'v_Punch_g14_c02'
p827
I61
sS'v_Punch_g14_c01'
p828
I61
sS'v_HandStandPushups_g25_c02'
p829
I27
sS'v_Punch_g14_c07'
p830
I61
sS'v_HandstandWalking_g23_c01'
p831
I65
sS'v_HandstandWalking_g23_c02'
p832
I63
sS'v_Punch_g14_c04'
p833
I61
sS'v_PullUps_g22_c03'
p834
I18
sS'v_PullUps_g22_c02'
p835
I18
sS'v_PullUps_g22_c01'
p836
I18
sS'v_CleanAndJerk_g20_c06'
p837
I75
sS'v_PullUps_g22_c04'
p838
I25
sS'v_PommelHorse_g17_c03'
p839
I88
sS'v_PommelHorse_g17_c02'
p840
I82
sS'v_PommelHorse_g17_c01'
p841
I51
sS'v_WallPushups_g11_c01'
p842
I31
sS'v_WallPushups_g11_c06'
p843
I24
sS'v_PommelHorse_g17_c06'
p844
I81
sS'v_PommelHorse_g17_c05'
p845
I85
sS'v_PommelHorse_g17_c04'
p846
I83
sS'v_JumpingJack_g25_c05'
p847
I15
sS'v_WallPushups_g10_c03'
p848
I15
sS'v_PullUps_g25_c02'
p849
I19
sS'v_Lunges_g25_c03'
p850
I50
sS'v_BenchPress_g24_c04'
p851
I34
sS'v_BenchPress_g24_c05'
p852
I23
sS'v_BenchPress_g24_c06'
p853
I17
sS'v_BenchPress_g24_c07'
p854
I15
sS'v_BenchPress_g24_c01'
p855
I14
sS'v_BenchPress_g24_c02'
p856
I14
sS'v_BenchPress_g24_c03'
p857
I13
sS'v_HandStandPushups_g18_c07'
p858
I14
sS'v_CleanAndJerk_g18_c04'
p859
I46
sS'v_Punch_g22_c05'
p860
I56
sS'v_PommelHorse_g13_c05'
p861
I52
sS'v_PommelHorse_g13_c04'
p862
I59
sS'v_PommelHorse_g13_c03'
p863
I51
sS'v_HandStandPushups_g08_c03'
p864
I22
sS'v_CleanAndJerk_g18_c02'
p865
I50
sS'v_CleanAndJerk_g18_c03'
p866
I46
sS'v_JumpingJack_g21_c01'
p867
I16
sS'v_JumpingJack_g21_c02'
p868
I16
sS'v_JumpingJack_g21_c03'
p869
I16
sS'v_JumpingJack_g21_c04'
p870
I22
sS'v_PushUps_g21_c01'
p871
I19
sS'v_HandStandPushups_g18_c04'
p872
I19
sS'v_HandstandWalking_g16_c04'
p873
I24
sS'v_PullUps_g20_c04'
p874
I32
sS'v_BodyWeightSquats_g22_c01'
p875
I19
sS'v_PullUps_g20_c01'
p876
I26
sS'v_HandstandWalking_g16_c01'
p877
I26
sS'v_HandstandWalking_g16_c02'
p878
I27
sS'v_PullUps_g20_c02'
p879
I37
sS'v_BodyWeightSquats_g19_c02'
p880
I23
sS'v_PullUps_g18_c03'
p881
I27
sS'v_HandStandPushups_g18_c02'
p882
I26
sS'v_HandStandPushups_g24_c01'
p883
I22
sS'v_PushUps_g24_c03'
p884
I14
sS'v_CleanAndJerk_g20_c05'
p885
I55
sS'v_BodyWeightSquats_g11_c04'
p886
I16
sS'v_PommelHorse_g19_c02'
p887
I57
sS'v_CleanAndJerk_g20_c01'
p888
I30
sS'v_CleanAndJerk_g18_c01'
p889
I47
sS'v_CleanAndJerk_g20_c03'
p890
I33
sS'v_CleanAndJerk_g20_c02'
p891
I57
sS'v_CleanAndJerk_g19_c01'
p892
I59
sS'v_PushUps_g21_c04'
p893
I21
sS'v_Lunges_g22_c03'
p894
I41
sS'v_CleanAndJerk_g12_c07'
p895
I31
sS'v_BenchPress_g17_c06'
p896
I24
sS'v_PullUps_g13_c04'
p897
I14
sS'v_Lunges_g22_c02'
p898
I41
sS'v_JumpingJack_g18_c04'
p899
I17
sS'v_HandStandPushups_g12_c07'
p900
I51
sS'v_Lunges_g12_c05'
p901
I50
sS'v_PullUps_g11_c02'
p902
I20
sS'v_JumpingJack_g18_c01'
p903
I16
sS'v_JumpingJack_g18_c02'
p904
I12
sS'v_HandStandPushups_g12_c06'
p905
I21
sS'v_Lunges_g13_c01'
p906
I54
sS'v_PushUps_g23_c04'
p907
I13
sS'v_Lunges_g13_c03'
p908
I51
sS'v_BenchPress_g17_c05'
p909
I35
sS'v_PushUps_g23_c01'
p910
I13
sS'v_PullUps_g13_c01'
p911
I16
sS'v_PushUps_g23_c03'
p912
I13
sS'v_Lunges_g13_c06'
p913
I51
sS'v_BodyWeightSquats_g11_c03'
p914
I18
sS'v_BenchPress_g25_c02'
p915
I22
sS'v_BenchPress_g18_c06'
p916
I23
sS'v_BenchPress_g17_c03'
p917
I14
sS'v_BodyWeightSquats_g19_c04'
p918
I22
sS'v_JumpRope_g25_c01'
p919
I67
sS'v_JumpRope_g25_c02'
p920
I69
sS'v_JumpRope_g25_c03'
p921
I66
sS'v_JumpRope_g25_c04'
p922
I69
sS'v_BodyWeightSquats_g19_c01'
p923
I28
sS'v_HandstandWalking_g21_c04'
p924
I36
sS'v_BodyWeightSquats_g19_c03'
p925
I29
sS'v_JumpRope_g10_c04'
p926
I96
sS'v_Punch_g12_c05'
p927
I61
sS'v_BodyWeightSquats_g22_c04'
p928
I13
sS'v_JumpRope_g10_c01'
p929
I101
sS'v_JumpRope_g10_c02'
p930
I101
sS'v_JumpRope_g10_c03'
p931
I102
sS'v_HandStandPushups_g16_c04'
p932
I26
sS'v_HandStandPushups_g11_c03'
p933
I38
sS'v_CleanAndJerk_g17_c04'
p934
I34
sS'v_Punch_g11_c07'
p935
I61
sS'v_Punch_g11_c04'
p936
I61
sS'v_Punch_g11_c05'
p937
I56
sS'v_Punch_g11_c02'
p938
I61
sS'v_HulaHoop_g16_c02'
p939
I19
sS'v_PullUps_g13_c02'
p940
I14
sS'v_Punch_g11_c01'
p941
I59
sS'v_JumpRope_g15_c02'
p942
I59
sS'v_BodyWeightSquats_g21_c04'
p943
I18
sS'v_JumpingJack_g09_c02'
p944
I16
sS'v_HulaHoop_g16_c04'
p945
I19
sS'v_JumpingJack_g09_c01'
p946
I16
sS'v_JumpingJack_g09_c06'
p947
I16
sS'v_JumpingJack_g09_c07'
p948
I16
sS'v_JumpingJack_g09_c04'
p949
I15
sS'v_WallPushups_g25_c02'
p950
I31
sS'v_CleanAndJerk_g13_c03'
p951
I23
sS'v_PommelHorse_g18_c01'
p952
I44
sS'v_PommelHorse_g18_c02'
p953
I43
sS'v_PommelHorse_g18_c03'
p954
I38
sS'v_Lunges_g25_c04'
p955
I51
sS'v_WallPushups_g25_c01'
p956
I23
sS'v_CleanAndJerk_g13_c04'
p957
I58
sS'v_JumpRope_g19_c04'
p958
I80
sS'v_BodyWeightSquats_g21_c01'
p959
I11
sS'v_CleanAndJerk_g16_c04'
p960
I22
sS'v_CleanAndJerk_g16_c02'
p961
I21
sS'v_CleanAndJerk_g16_c03'
p962
I20
sS'v_BenchPress_g11_c02'
p963
I20
sS'v_CleanAndJerk_g16_c01'
p964
I21
sS'v_HandstandWalking_g14_c02'
p965
I18
sS'v_HandstandWalking_g14_c03'
p966
I32
sS'v_HandstandWalking_g14_c01'
p967
I16
sS'v_BenchPress_g12_c05'
p968
I17
sS'v_HandstandWalking_g14_c04'
p969
I28
sS'v_BenchPress_g12_c04'
p970
I21
sS'v_Punch_g09_c05'
p971
I61
sS'v_Punch_g09_c04'
p972
I61
sS'v_Punch_g09_c07'
p973
I61
sS'v_Punch_g09_c06'
p974
I61
sS'v_Punch_g22_c01'
p975
I61
sS'v_JumpRope_g20_c04'
p976
I86
sS'v_Punch_g09_c03'
p977
I61
sS'v_Punch_g09_c02'
p978
I61
sS'v_CleanAndJerk_g12_c03'
p979
I26
sS'v_HandStandPushups_g18_c05'
p980
I20
sS'v_JumpRope_g18_c05'
p981
I70
sS'v_JumpRope_g18_c06'
p982
I101
sS'v_HandStandPushups_g18_c06'
p983
I21
sS'v_HandStandPushups_g18_c01'
p984
I22
sS'v_JumpRope_g18_c01'
p985
I61
sS'v_HandStandPushups_g18_c03'
p986
I19
sS'v_JumpRope_g18_c03'
p987
I75
sS'v_HandStandPushups_g12_c03'
p988
I15
sS'v_HandStandPushups_g12_c02'
p989
I18
sS'v_HandStandPushups_g12_c01'
p990
I22
sS'v_WallPushups_g10_c04'
p991
I17
sS'v_PullUps_g13_c03'
p992
I14
sS'v_BodyWeightSquats_g11_c01'
p993
I17
sS'v_HandStandPushups_g12_c05'
p994
I22
sS'v_HandStandPushups_g12_c04'
p995
I26
sS'v_PullUps_g15_c01'
p996
I28
sS'v_Punch_g13_c02'
p997
I61
sS'v_JumpRope_g17_c02'
p998
I102
sS'v_PushUps_g09_c04'
p999
I17
sS'v_JumpRope_g23_c02'
p1000
I52
sS'v_PushUps_g09_c01'
p1001
I17
sS'v_PushUps_g09_c03'
p1002
I17
sS'v_PullUps_g15_c03'
p1003
I35
sS'v_PushUps_g09_c02'
p1004
I17
sS'v_JumpRope_g12_c02'
p1005
I68
sS'v_JumpRope_g12_c03'
p1006
I67
sS'v_JumpRope_g12_c01'
p1007
I63
sS'v_HulaHoop_g16_c03'
p1008
I20
sS'v_JumpRope_g12_c04'
p1009
I67
sS'v_JumpRope_g12_c05'
p1010
I68
sS'v_HulaHoop_g22_c01'
p1011
I18
sS'v_HulaHoop_g22_c03'
p1012
I20
sS'v_HulaHoop_g22_c02'
p1013
I19
sS'v_HulaHoop_g22_c05'
p1014
I18
sS'v_HulaHoop_g22_c04'
p1015
I19
sS'v_JumpingJack_g08_c02'
p1016
I14
sS'v_PommelHorse_g22_c03'
p1017
I69
sS'v_Lunges_g18_c04'
p1018
I50
sS'v_Lunges_g18_c05'
p1019
I51
sS'v_Lunges_g18_c02'
p1020
I50
sS'v_Lunges_g18_c03'
p1021
I51
sS'v_Lunges_g18_c01'
p1022
I52
sS'v_JumpRope_g22_c03'
p1023
I36
sS'v_JumpRope_g22_c02'
p1024
I35
sS'v_JumpRope_g22_c01'
p1025
I34
sS'v_JumpRope_g19_c01'
p1026
I52
sS'v_JumpRope_g22_c06'
p1027
I37
sS'v_JumpRope_g22_c05'
p1028
I32
sS'v_JumpRope_g22_c04'
p1029
I42
sS'v_BodyWeightSquats_g10_c05'
p1030
I32
sS'v_BodyWeightSquats_g10_c04'
p1031
I30
sS'v_HulaHoop_g21_c04'
p1032
I21
sS'v_HulaHoop_g21_c02'
p1033
I16
sS'v_HulaHoop_g21_c03'
p1034
I21
sS'v_BodyWeightSquats_g10_c03'
p1035
I31
sS'v_HulaHoop_g21_c01'
p1036
I20
sS'v_JumpRope_g09_c07'
p1037
I83
sS'v_PommelHorse_g22_c02'
p1038
I73
sS'v_WallPushups_g22_c04'
p1039
I15
sS'v_Punch_g25_c03'
p1040
I61
sS'v_CleanAndJerk_g11_c04'
p1041
I42
sS'v_CleanAndJerk_g11_c01'
p1042
I42
sS'v_JumpingJack_g20_c03'
p1043
I24
sS'v_CleanAndJerk_g11_c03'
p1044
I65
sS'v_CleanAndJerk_g11_c02'
p1045
I61
sS'v_HandStandPushups_g20_c04'
p1046
I25
sS'v_HandStandPushups_g20_c05'
p1047
I26
sS'v_HandStandPushups_g20_c06'
p1048
I16
sS'v_HandStandPushups_g20_c07'
p1049
I24
sS'v_HandStandPushups_g20_c01'
p1050
I23
sS'v_HandStandPushups_g20_c02'
p1051
I28
sS'v_Punch_g14_c05'
p1052
I61
sS'v_Punch_g19_c04'
p1053
I61
sS'v_JumpRope_g19_c03'
p1054
I56
sS'v_WallPushups_g13_c04'
p1055
I21
sS'v_WallPushups_g13_c05'
p1056
I32
sS'v_WallPushups_g13_c01'
p1057
I22
sS'v_WallPushups_g13_c02'
p1058
I26
sS'v_PommelHorse_g20_c04'
p1059
I64
sS'v_WallPushups_g08_c04'
p1060
I25
sS'v_WallPushups_g08_c05'
p1061
I27
sS'v_WallPushups_g08_c01'
p1062
I29
sS'v_WallPushups_g08_c02'
p1063
I31
sS'v_WallPushups_g08_c03'
p1064
I31
sS'v_JumpingJack_g13_c03'
p1065
I17
sS'v_HulaHoop_g09_c01'
p1066
I21
sS'v_HulaHoop_g09_c02'
p1067
I21
sS'v_HulaHoop_g09_c03'
p1068
I18
sS'v_HulaHoop_g09_c04'
p1069
I21
sS'v_JumpingJack_g13_c06'
p1070
I14
sS'v_JumpingJack_g13_c05'
p1071
I17
sS'v_JumpingJack_g13_c04'
p1072
I16
sS'v_BodyWeightSquats_g13_c02'
p1073
I13
sS'v_BodyWeightSquats_g13_c03'
p1074
I24
sS'v_Punch_g22_c02'
p1075
I53
sS'v_BodyWeightSquats_g13_c01'
p1076
I23
sS'v_JumpRope_g19_c02'
p1077
I49
sS'v_BodyWeightSquats_g13_c04'
p1078
I16
sS'v_PushUps_g20_c02'
p1079
I18
sS'v_WallPushups_g10_c02'
p1080
I15
sS'v_HandStandPushups_g11_c02'
p1081
I31
sS'v_Punch_g20_c02'
p1082
I58
sS'v_Punch_g20_c03'
p1083
I61
sS'v_Punch_g20_c01'
p1084
I61
sS'v_BodyWeightSquats_g18_c04'
p1085
I45
sS'v_Punch_g20_c04'
p1086
I61
sS'v_BenchPress_g23_c02'
p1087
I26
sS'v_PommelHorse_g08_c04'
p1088
I42
sS'v_PullUps_g20_c03'
p1089
I33
sS'v_JumpingJack_g19_c05'
p1090
I14
sS'v_JumpingJack_g19_c04'
p1091
I13
sS'v_JumpingJack_g19_c07'
p1092
I15
sS'v_JumpingJack_g19_c06'
p1093
I14
sS'v_JumpingJack_g19_c01'
p1094
I14
sS'v_JumpingJack_g19_c03'
p1095
I15
sS'v_CleanAndJerk_g17_c02'
p1096
I24
sS'v_WallPushups_g18_c05'
p1097
I23
sS'v_Punch_g14_c03'
p1098
I56
sS'v_PushUps_g19_c02'
p1099
I16
sS'v_PommelHorse_g08_c01'
p1100
I43
sS'v_BodyWeightSquats_g15_c01'
p1101
I29
sS'v_PushUps_g13_c03'
p1102
I11
sS'v_PullUps_g12_c04'
p1103
I14
sS'v_JumpRope_g09_c02'
p1104
I84
sS'v_JumpingJack_g12_c03'
p1105
I17
sS'v_JumpingJack_g23_c04'
p1106
I15
sS'v_JumpRope_g09_c01'
p1107
I79
sS'v_JumpingJack_g23_c02'
p1108
I15
sS'v_JumpingJack_g23_c03'
p1109
I15
sS'v_JumpingJack_g12_c04'
p1110
I17
sS'v_JumpRope_g09_c05'
p1111
I86
sS'v_BodyWeightSquats_g15_c04'
p1112
I26
sS'v_PommelHorse_g22_c06'
p1113
I76
sS'v_PullUps_g12_c03'
p1114
I12
sS'v_Punch_g08_c07'
p1115
I51
sS'v_HulaHoop_g23_c01'
p1116
I17
sS'v_HulaHoop_g23_c02'
p1117
I17
sS'v_HulaHoop_g23_c03'
p1118
I17
sS'v_HulaHoop_g23_c04'
p1119
I19
sS'v_HulaHoop_g23_c05'
p1120
I21
sS'v_HulaHoop_g23_c06'
p1121
I21
sS'v_JumpingJack_g25_c07'
p1122
I15
sS'v_BenchPress_g20_c01'
p1123
I18
sS'v_BenchPress_g20_c02'
p1124
I17
sS'v_PullUps_g12_c01'
p1125
I14
sS'v_BenchPress_g20_c04'
p1126
I43
sS'v_BenchPress_g20_c05'
p1127
I19
sS'v_BenchPress_g20_c06'
p1128
I18
sS'v_BenchPress_g20_c07'
p1129
I17
sS'v_HandStandPushups_g22_c02'
p1130
I23
sS'v_PullUps_g18_c01'
p1131
I26
sS'v_PullUps_g18_c02'
p1132
I28
sS'v_Lunges_g08_c02'
p1133
I35
sS'v_PullUps_g18_c04'
p1134
I28
sS'v_JumpingJack_g25_c02'
p1135
I15
sS'v_HandStandPushups_g22_c04'
p1136
I19
sS'v_HandStandPushups_g22_c05'
p1137
I11
sS'v_BenchPress_g15_c04'
p1138
I35
sS'v_BenchPress_g12_c01'
p1139
I14
sS'v_HandStandPushups_g21_c02'
p1140
I18
sS'v_HandstandWalking_g11_c03'
p1141
I26
sS'v_HandstandWalking_g11_c02'
p1142
I25
sS'v_HandstandWalking_g11_c01'
p1143
I25
sS'v_Lunges_g08_c04'
p1144
I33
sS'v_CleanAndJerk_g25_c01'
p1145
I27
sS'v_CleanAndJerk_g25_c02'
p1146
I39
sS'v_CleanAndJerk_g24_c02'
p1147
I53
sS'v_CleanAndJerk_g25_c04'
p1148
I52
sS'v_BenchPress_g15_c06'
p1149
I10
sS'v_JumpRope_g24_c07'
p1150
I73
sS'v_JumpingJack_g12_c02'
p1151
I17
sS'v_PommelHorse_g25_c01'
p1152
I51
sS'v_PommelHorse_g25_c02'
p1153
I60
sS'v_PommelHorse_g25_c03'
p1154
I55
sS'v_JumpingJack_g11_c01'
p1155
I14
sS'v_JumpingJack_g11_c03'
p1156
I14
sS'v_JumpingJack_g11_c02'
p1157
I14
sS'v_PushUps_g08_c02'
p1158
I17
sS'v_BodyWeightSquats_g10_c01'
p1159
I34
sS'v_PushUps_g17_c02'
p1160
I17
sS'v_Punch_g25_c07'
p1161
I61
sS'v_Punch_g23_c04'
p1162
I61
sS'v_Punch_g25_c05'
p1163
I61
sS'v_HulaHoop_g08_c02'
p1164
I19
sS'v_HulaHoop_g12_c03'
p1165
I20
sS'v_JumpRope_g13_c02'
p1166
I71
sS'v_Punch_g25_c01'
p1167
I61
sS'v_WallPushups_g19_c03'
p1168
I17
sS'v_WallPushups_g09_c05'
p1169
I26
sS'v_BenchPress_g22_c02'
p1170
I16
sS'v_BenchPress_g14_c03'
p1171
I22
sS'v_BenchPress_g14_c02'
p1172
I20
sS'v_BenchPress_g14_c05'
p1173
I43
sS'v_BenchPress_g14_c04'
p1174
I62
sS'v_BenchPress_g14_c07'
p1175
I22
sS'v_BenchPress_g14_c06'
p1176
I36
sS'v_HandStandPushups_g19_c04'
p1177
I22
sS'v_HandStandPushups_g19_c01'
p1178
I28
sS'v_HandStandPushups_g19_c02'
p1179
I28
sS'v_HandStandPushups_g19_c03'
p1180
I17
sS'v_BodyWeightSquats_g25_c06'
p1181
I21
sS'v_HulaHoop_g13_c02'
p1182
I20
sS'v_JumpingJack_g10_c04'
p1183
I11
sS'v_CleanAndJerk_g23_c04'
p1184
I18
sS'v_PushUps_g12_c04'
p1185
I15
sS'v_PushUps_g12_c01'
p1186
I15
sS'v_PushUps_g12_c03'
p1187
I15
sS'v_PushUps_g12_c02'
p1188
I15
sS'v_PushUps_g08_c04'
p1189
I17
sS'v_BodyWeightSquats_g24_c02'
p1190
I45
sS'v_BodyWeightSquats_g24_c03'
p1191
I48
sS'v_JumpingJack_g24_c01'
p1192
I16
sS'v_BodyWeightSquats_g24_c05'
p1193
I16
sS'v_JumpingJack_g24_c03'
p1194
I16
sS'v_BenchPress_g11_c05'
p1195
I23
sS'v_HulaHoop_g17_c01'
p1196
I19
sS'v_HulaHoop_g17_c03'
p1197
I20
sS'v_HulaHoop_g17_c02'
p1198
I21
sS'v_WallPushups_g24_c02'
p1199
I22
sS'v_HulaHoop_g17_c04'
p1200
I20
sS'v_WallPushups_g24_c01'
p1201
I22
sS'v_Lunges_g15_c03'
p1202
I22
sS'v_Lunges_g15_c02'
p1203
I20
sS'v_Lunges_g15_c01'
p1204
I24
sS'v_Lunges_g15_c04'
p1205
I18
sS'v_PushUps_g21_c03'
p1206
I25
sS'v_PushUps_g21_c02'
p1207
I34
sS'v_PushUps_g24_c04'
p1208
I15
sS'v_PushUps_g24_c02'
p1209
I14
sS'v_BenchPress_g12_c07'
p1210
I14
sS'v_PullUps_g14_c01'
p1211
I14
sS'v_PullUps_g19_c01'
p1212
I19
sS'v_BenchPress_g17_c07'
p1213
I15
sS'v_PullUps_g19_c03'
p1214
I19
sS'v_PullUps_g19_c02'
p1215
I18
sS'v_BenchPress_g17_c02'
p1216
I14
sS'v_PullUps_g19_c04'
p1217
I18
sS'v_BenchPress_g17_c01'
p1218
I15
sS'v_JumpRope_g15_c01'
p1219
I92
sS'v_JumpRope_g15_c03'
p1220
I82
sS'v_PullUps_g14_c03'
p1221
I15
sS'v_JumpRope_g15_c05'
p1222
I89
sS'v_JumpRope_g15_c04'
p1223
I82
sS'v_JumpRope_g15_c06'
p1224
I83
sS'v_PullUps_g14_c04'
p1225
I15
sS'v_JumpRope_g13_c03'
p1226
I81
sS'v_CleanAndJerk_g09_c02'
p1227
I47
sS'v_HulaHoop_g10_c03'
p1228
I21
sS'v_HulaHoop_g13_c06'
p1229
I18
sS'v_Punch_g13_c01'
p1230
I61
sS'v_CleanAndJerk_g17_c01'
p1231
I18
sS'v_Punch_g13_c03'
p1232
I40
sS'v_Punch_g13_c04'
p1233
I61
sS'v_Punch_g13_c05'
p1234
I61
sS'v_Punch_g13_c06'
p1235
I61
sS'v_Punch_g13_c07'
p1236
I61
sS'v_CleanAndJerk_g09_c01'
p1237
I51
sS'v_PommelHorse_g14_c03'
p1238
I60
sS'v_HandStandPushups_g11_c04'
p1239
I30
sS'v_PushUps_g19_c03'
p1240
I16
sS'v_PommelHorse_g20_c07'
p1241
I82
sS'v_PushUps_g19_c01'
p1242
I15
sS'v_PommelHorse_g20_c01'
p1243
I52
sS'v_HandStandPushups_g11_c01'
p1244
I30
sS'v_PushUps_g19_c04'
p1245
I16
sS'v_PommelHorse_g20_c02'
p1246
I47
sS'v_WallPushups_g17_c01'
p1247
I26
sS'v_JumpRope_g13_c05'
p1248
I66
sS'v_Lunges_g08_c01'
p1249
I32
sS'v_CleanAndJerk_g14_c01'
p1250
I39
sS'v_Lunges_g08_c03'
p1251
I36
sS'v_CleanAndJerk_g14_c03'
p1252
I41
sS'v_CleanAndJerk_g14_c04'
p1253
I70
sS'v_CleanAndJerk_g14_c05'
p1254
I36
sS'v_CleanAndJerk_g14_c06'
p1255
I46
sS'v_BenchPress_g22_c06'
p1256
I55
sS'v_PushUps_g17_c01'
p1257
I17
sS'v_BenchPress_g22_c04'
p1258
I15
sS'v_BenchPress_g22_c05'
p1259
I15
sS'v_PushUps_g17_c04'
p1260
I16
sS'v_BenchPress_g22_c03'
p1261
I15
sS'v_BenchPress_g22_c01'
p1262
I18
sS'v_HandStandPushups_g20_c03'
p1263
I25
sS'v_BenchPress_g10_c02'
p1264
I22
sS'v_Punch_g21_c03'
p1265
I61
sS'v_Punch_g21_c02'
p1266
I61
sS'v_Punch_g21_c01'
p1267
I61
sS'v_Punch_g21_c07'
p1268
I52
sS'v_Punch_g21_c06'
p1269
I61
sS'v_Punch_g21_c05'
p1270
I61
sS'v_Punch_g21_c04'
p1271
I61
s.